target datalayout = "e-m:e-p270:32:32-p271:32:32-p272:64:64-i64:64-i128:128-f80:128-n8:16:32:64-S128"
target triple = "x86_64-unknown-linux-gnu"

%"class.sat::literal" = type { i32 }
%"class.sat::drat" = type { ptr, %class.svector, ptr, %"class.sat::clause_allocator", ptr, ptr, %class.svector.5, %class.svector.7, %class.vector.9, %class.svector.10, i8, i8, i8, i8, i8, %"struct.sat::drat::stats" }
%class.svector = type { %class.vector }
%class.vector = type { ptr }
%"class.sat::clause_allocator" = type { %class.sat_allocator, %class.id_gen }
%class.sat_allocator = type { ptr, i64, %class.ptr_vector, ptr, [65 x %class.ptr_vector.1] }
%class.ptr_vector = type { %class.vector.0 }
%class.vector.0 = type { ptr }
%class.ptr_vector.1 = type { %class.vector.2 }
%class.vector.2 = type { ptr }
%class.id_gen = type { i32, %class.svector.3 }
%class.svector.3 = type { %class.vector.4 }
%class.vector.4 = type { ptr }
%class.svector.5 = type { %class.vector.6 }
%class.vector.6 = type { ptr }
%class.svector.7 = type { %class.vector.8 }
%class.vector.8 = type { ptr }
%class.vector.9 = type { ptr }
%class.svector.10 = type { %class.vector.11 }
%class.vector.11 = type { ptr }
%"struct.sat::drat::stats" = type { i32, i32, i32, i32 }
%class.approx_set_tpl = type { i32 }
%"struct.std::pair" = type { ptr, %"class.sat::status" }
%"class.sat::status" = type { i32, i32, ptr }
%"class.sat::clause" = type { i32, i32, i32, %class.approx_set_tpl, i32, [0 x %"class.sat::literal"] }

@.str.5 = private unnamed_addr constant [104 x i8] c"generated/home/dtcxzyw/WorkSpace/Projects/compilers/llvm-opt-benchmark/bench/z3/z3/src/sat/sat_drat.cpp\00", align 1
@.str.6 = private unnamed_addr constant [51 x i8] c"Failed to verify: num_true != 0 || num_undef != 1\0A\00", align 1

; Function Attrs: mustprogress nounwind uwtable
define linkonce_odr hidden noundef i32 @_ZNK6vectorI5lboolLb0EjE4sizeEv(ptr noundef nonnull align 8 dereferenceable(8) %this) #4 comdat align 2 {
entry:
  %retval = alloca i32, align 4
  %this.addr = alloca ptr, align 8
  store ptr %this, ptr %this.addr, align 8
  %this1 = load ptr, ptr %this.addr, align 8
  %m_data = getelementptr inbounds %class.vector.11, ptr %this1, i32 0, i32 0
  %0 = load ptr, ptr %m_data, align 8
  %cmp = icmp eq ptr %0, null
  br i1 %cmp, label %if.then, label %if.end

if.then:                                          ; preds = %entry
  store i32 0, ptr %retval, align 4
  br label %return

if.end:                                           ; preds = %entry
  %m_data2 = getelementptr inbounds %class.vector.11, ptr %this1, i32 0, i32 0
  %1 = load ptr, ptr %m_data2, align 8
  %arrayidx = getelementptr inbounds i32, ptr %1, i64 -1
  %2 = load i32, ptr %arrayidx, align 4
  store i32 %2, ptr %retval, align 4
  br label %return

return:                                           ; preds = %if.end, %if.then
  %3 = load i32, ptr %retval, align 4
  ret i32 %3
}

; Function Attrs: mustprogress nounwind uwtable
define linkonce_odr hidden noundef i32 @_Zco5lbool(i32 noundef %lb) #4 comdat {
entry:
  %lb.addr = alloca i32, align 4
  store i32 %lb, ptr %lb.addr, align 4
  %0 = load i32, ptr %lb.addr, align 4
  %sub = sub nsw i32 0, %0
  ret i32 %sub
}

; Function Attrs: mustprogress nounwind uwtable
define linkonce_odr hidden noundef zeroext i1 @_ZNK3sat7literal4signEv(ptr noundef nonnull align 4 dereferenceable(4) %this) #4 comdat align 2 {
entry:
  %this.addr = alloca ptr, align 8
  store ptr %this, ptr %this.addr, align 8
  %this1 = load ptr, ptr %this.addr, align 8
  %m_val = getelementptr inbounds %"class.sat::literal", ptr %this1, i32 0, i32 0
  %0 = load i32, ptr %m_val, align 4
  %conv = zext i32 %0 to i64
  %and = and i64 %conv, 1
  %tobool = icmp ne i64 %and, 0
  ret i1 %tobool
}

; Function Attrs: mustprogress nounwind uwtable
define linkonce_odr hidden noundef nonnull align 4 dereferenceable(4) ptr @_ZNK6vectorI5lboolLb0EjE3getEjRKS0_(ptr noundef nonnull align 8 dereferenceable(8) %this, i32 noundef %idx, ptr noundef nonnull align 4 dereferenceable(4) %d) #4 comdat align 2 {
entry:
  %retval = alloca ptr, align 8
  %this.addr = alloca ptr, align 8
  %idx.addr = alloca i32, align 4
  %d.addr = alloca ptr, align 8
  store ptr %this, ptr %this.addr, align 8
  store i32 %idx, ptr %idx.addr, align 4
  store ptr %d, ptr %d.addr, align 8
  %this1 = load ptr, ptr %this.addr, align 8
  %0 = load i32, ptr %idx.addr, align 4
  %call = call noundef i32 @_ZNK6vectorI5lboolLb0EjE4sizeEv(ptr noundef nonnull align 8 dereferenceable(8) %this1)
  %cmp = icmp uge i32 %0, %call
  br i1 %cmp, label %if.then, label %if.end

if.then:                                          ; preds = %entry
  %1 = load ptr, ptr %d.addr, align 8
  store ptr %1, ptr %retval, align 8
  br label %return

if.end:                                           ; preds = %entry
  %m_data = getelementptr inbounds %class.vector.11, ptr %this1, i32 0, i32 0
  %2 = load ptr, ptr %m_data, align 8
  %3 = load i32, ptr %idx.addr, align 4
  %idxprom = zext i32 %3 to i64
  %arrayidx = getelementptr inbounds i32, ptr %2, i64 %idxprom
  store ptr %arrayidx, ptr %retval, align 8
  br label %return

return:                                           ; preds = %if.end, %if.then
  %4 = load ptr, ptr %retval, align 8
  ret ptr %4
}

; Function Attrs: mustprogress nounwind uwtable
define linkonce_odr hidden noundef i32 @_ZNK3sat7literal3varEv(ptr noundef nonnull align 4 dereferenceable(4) %this) #4 comdat align 2 {
entry:
  %this.addr = alloca ptr, align 8
  store ptr %this, ptr %this.addr, align 8
  %this1 = load ptr, ptr %this.addr, align 8
  %m_val = getelementptr inbounds %"class.sat::literal", ptr %this1, i32 0, i32 0
  %0 = load i32, ptr %m_val, align 4
  %shr = lshr i32 %0, 1
  ret i32 %shr
}

; Function Attrs: mustprogress nounwind uwtable
define linkonce_odr hidden noundef nonnull align 8 dereferenceable(16) ptr @_ZNSt10__pair_getILm1EE11__const_getIRN3sat6clauseENS2_6statusEEERKT0_RKSt4pairIT_S6_E(ptr noundef nonnull align 8 dereferenceable(24) %__pair) #4 comdat align 2 {
entry:
  %__pair.addr = alloca ptr, align 8
  store ptr %__pair, ptr %__pair.addr, align 8
  %0 = load ptr, ptr %__pair.addr, align 8
  %second = getelementptr inbounds %"struct.std::pair", ptr %0, i32 0, i32 1
  ret ptr %second
}

; Function Attrs: mustprogress nounwind uwtable
define linkonce_odr hidden noundef nonnull align 4 dereferenceable(20) ptr @_ZNSt10__pair_getILm0EE11__const_getIRN3sat6clauseENS2_6statusEEERKT_RKSt4pairIS6_T0_E(ptr noundef nonnull align 8 dereferenceable(24) %__pair) #4 comdat align 2 {
entry:
  %__pair.addr = alloca ptr, align 8
  store ptr %__pair, ptr %__pair.addr, align 8
  %0 = load ptr, ptr %__pair.addr, align 8
  %first = getelementptr inbounds %"struct.std::pair", ptr %0, i32 0, i32 0
  %1 = load ptr, ptr %first, align 8
  ret ptr %1
}

; Function Attrs: mustprogress nounwind uwtable
define linkonce_odr hidden noundef i32 @_ZNK6vectorISt4pairIRN3sat6clauseENS1_6statusEELb0EjE4sizeEv(ptr noundef nonnull align 8 dereferenceable(8) %this) #4 comdat align 2 {
entry:
  %retval = alloca i32, align 4
  %this.addr = alloca ptr, align 8
  store ptr %this, ptr %this.addr, align 8
  %this1 = load ptr, ptr %this.addr, align 8
  %m_data = getelementptr inbounds %class.vector.6, ptr %this1, i32 0, i32 0
  %0 = load ptr, ptr %m_data, align 8
  %cmp = icmp eq ptr %0, null
  br i1 %cmp, label %if.then, label %if.end

if.then:                                          ; preds = %entry
  store i32 0, ptr %retval, align 4
  br label %return

if.end:                                           ; preds = %entry
  %m_data2 = getelementptr inbounds %class.vector.6, ptr %this1, i32 0, i32 0
  %1 = load ptr, ptr %m_data2, align 8
  %arrayidx = getelementptr inbounds i32, ptr %1, i64 -1
  %2 = load i32, ptr %arrayidx, align 4
  store i32 %2, ptr %retval, align 4
  br label %return

return:                                           ; preds = %if.end, %if.then
  %3 = load i32, ptr %retval, align 4
  ret i32 %3
}

; Function Attrs: mustprogress uwtable
define hidden noundef i32 @_ZNK3sat4drat5valueENS_7literalE(ptr noundef nonnull align 8 dereferenceable(664) %this, i32 %l.coerce) #5 align 2 {
entry:
  %l = alloca %"class.sat::literal", align 4
  %this.addr = alloca ptr, align 8
  %val = alloca i32, align 4
  %ref.tmp = alloca i32, align 4
  %coerce.dive = getelementptr inbounds %"class.sat::literal", ptr %l, i32 0, i32 0
  store i32 %l.coerce, ptr %coerce.dive, align 4
  store ptr %this, ptr %this.addr, align 8
  %this1 = load ptr, ptr %this.addr, align 8
  %m_assignment = getelementptr inbounds %"class.sat::drat", ptr %this1, i32 0, i32 9
  %call = call noundef i32 @_ZNK3sat7literal3varEv(ptr noundef nonnull align 4 dereferenceable(4) %l)
  store i32 0, ptr %ref.tmp, align 4
  %call2 = call noundef nonnull align 4 dereferenceable(4) ptr @_ZNK6vectorI5lboolLb0EjE3getEjRKS0_(ptr noundef nonnull align 8 dereferenceable(8) %m_assignment, i32 noundef %call, ptr noundef nonnull align 4 dereferenceable(4) %ref.tmp)
  %0 = load i32, ptr %call2, align 4
  store i32 %0, ptr %val, align 4
  %1 = load i32, ptr %val, align 4
  %cmp = icmp eq i32 %1, 0
  br i1 %cmp, label %cond.true, label %lor.lhs.false

lor.lhs.false:                                    ; preds = %entry
  %call3 = call noundef zeroext i1 @_ZNK3sat7literal4signEv(ptr noundef nonnull align 4 dereferenceable(4) %l)
  br i1 %call3, label %cond.false, label %cond.true

cond.true:                                        ; preds = %lor.lhs.false, %entry
  %2 = load i32, ptr %val, align 4
  br label %cond.end

cond.false:                                       ; preds = %lor.lhs.false
  %3 = load i32, ptr %val, align 4
  %call4 = call noundef i32 @_Zco5lbool(i32 noundef %3)
  br label %cond.end

cond.end:                                         ; preds = %cond.false, %cond.true
  %cond = phi i32 [ %2, %cond.true ], [ %call4, %cond.false ]
  ret i32 %cond
}

; Function Attrs: mustprogress nounwind uwtable
define linkonce_odr hidden noundef nonnull align 4 dereferenceable(4) ptr @_ZN3sat6clauseixEj(ptr noundef nonnull align 4 dereferenceable(20) %this, i32 noundef %idx) #4 comdat align 2 {
entry:
  %this.addr = alloca ptr, align 8
  %idx.addr = alloca i32, align 4
  store ptr %this, ptr %this.addr, align 8
  store i32 %idx, ptr %idx.addr, align 4
  %this1 = load ptr, ptr %this.addr, align 8
  %m_lits = getelementptr inbounds %"class.sat::clause", ptr %this1, i32 0, i32 5
  %0 = load i32, ptr %idx.addr, align 4
  %idxprom = zext i32 %0 to i64
  %arrayidx = getelementptr inbounds [0 x %"class.sat::literal"], ptr %m_lits, i64 0, i64 %idxprom
  ret ptr %arrayidx
}

; Function Attrs: mustprogress nounwind uwtable
define linkonce_odr hidden noundef zeroext i1 @_ZNK3sat6status10is_deletedEv(ptr noundef nonnull align 8 dereferenceable(16) %this) #4 comdat align 2 {
entry:
  %this.addr = alloca ptr, align 8
  store ptr %this, ptr %this.addr, align 8
  %this1 = load ptr, ptr %this.addr, align 8
  %m_st = getelementptr inbounds %"class.sat::status", ptr %this1, i32 0, i32 0
  %0 = load i32, ptr %m_st, align 8
  %cmp = icmp eq i32 3, %0
  ret i1 %cmp
}

; Function Attrs: mustprogress nounwind uwtable
define linkonce_odr hidden noundef i32 @_ZNK3sat6clause4sizeEv(ptr noundef nonnull align 4 dereferenceable(20) %this) #4 comdat align 2 {
entry:
  %this.addr = alloca ptr, align 8
  store ptr %this, ptr %this.addr, align 8
  %this1 = load ptr, ptr %this.addr, align 8
  %m_size = getelementptr inbounds %"class.sat::clause", ptr %this1, i32 0, i32 1
  %0 = load i32, ptr %m_size, align 4
  ret i32 %0
}

; Function Attrs: mustprogress nounwind uwtable
define linkonce_odr hidden noundef nonnull align 8 dereferenceable(16) ptr @_ZSt3getILm1ERN3sat6clauseENS0_6statusEERKNSt13tuple_elementIXT_ESt4pairIT0_T1_EE4typeERKS8_(ptr noundef nonnull align 8 dereferenceable(24) %__in) #4 comdat {
entry:
  %__in.addr = alloca ptr, align 8
  store ptr %__in, ptr %__in.addr, align 8
  %0 = load ptr, ptr %__in.addr, align 8
  %call = call noundef nonnull align 8 dereferenceable(16) ptr @_ZNSt10__pair_getILm1EE11__const_getIRN3sat6clauseENS2_6statusEEERKT0_RKSt4pairIT_S6_E(ptr noundef nonnull align 8 dereferenceable(24) %0) #3
  ret ptr %call
}

; Function Attrs: mustprogress nounwind uwtable
define linkonce_odr hidden noundef nonnull align 4 dereferenceable(20) ptr @_ZSt3getILm0ERN3sat6clauseENS0_6statusEERKNSt13tuple_elementIXT_ESt4pairIT0_T1_EE4typeERKS8_(ptr noundef nonnull align 8 dereferenceable(24) %__in) #4 comdat {
entry:
  %__in.addr = alloca ptr, align 8
  store ptr %__in, ptr %__in.addr, align 8
  %0 = load ptr, ptr %__in.addr, align 8
  %call = call noundef nonnull align 4 dereferenceable(20) ptr @_ZNSt10__pair_getILm0EE11__const_getIRN3sat6clauseENS2_6statusEEERKT_RKSt4pairIS6_T0_E(ptr noundef nonnull align 8 dereferenceable(24) %0) #3
  ret ptr %call
}

; Function Attrs: mustprogress uwtable
define linkonce_odr hidden noundef ptr @_ZNK6vectorISt4pairIRN3sat6clauseENS1_6statusEELb0EjE3endEv(ptr noundef nonnull align 8 dereferenceable(8) %this) #5 comdat align 2 {
entry:
  %this.addr = alloca ptr, align 8
  store ptr %this, ptr %this.addr, align 8
  %this1 = load ptr, ptr %this.addr, align 8
  %m_data = getelementptr inbounds %class.vector.6, ptr %this1, i32 0, i32 0
  %0 = load ptr, ptr %m_data, align 8
  %call = call noundef i32 @_ZNK6vectorISt4pairIRN3sat6clauseENS1_6statusEELb0EjE4sizeEv(ptr noundef nonnull align 8 dereferenceable(8) %this1)
  %idx.ext = zext i32 %call to i64
  %add.ptr = getelementptr inbounds %"struct.std::pair", ptr %0, i64 %idx.ext
  ret ptr %add.ptr
}

; Function Attrs: mustprogress nounwind uwtable
define linkonce_odr hidden noundef ptr @_ZNK6vectorISt4pairIRN3sat6clauseENS1_6statusEELb0EjE5beginEv(ptr noundef nonnull align 8 dereferenceable(8) %this) #4 comdat align 2 {
entry:
  %this.addr = alloca ptr, align 8
  store ptr %this, ptr %this.addr, align 8
  %this1 = load ptr, ptr %this.addr, align 8
  %m_data = getelementptr inbounds %class.vector.6, ptr %this1, i32 0, i32 0
  %0 = load ptr, ptr %m_data, align 8
  ret ptr %0
}

; Function Attrs: mustprogress uwtable
define hidden void @_ZNK3sat4drat20validate_propagationEv(ptr noundef nonnull align 8 dereferenceable(664) %this) #5 align 2 {
entry:
  %this.addr = alloca ptr, align 8
  %__range1 = alloca ptr, align 8
  %__begin1 = alloca ptr, align 8
  %__end1 = alloca ptr, align 8
  %0 = alloca ptr, align 8
  %c = alloca ptr, align 8
  %st = alloca ptr, align 8
  %num_undef = alloca i32, align 4
  %num_true = alloca i32, align 4
  %j = alloca i32, align 4
  %agg.tmp = alloca %"class.sat::literal", align 4
  store ptr %this, ptr %this.addr, align 8
  %this1 = load ptr, ptr %this.addr, align 8
  %m_proof = getelementptr inbounds %"class.sat::drat", ptr %this1, i32 0, i32 6
  store ptr %m_proof, ptr %__range1, align 8
  %1 = load ptr, ptr %__range1, align 8
  %call = call noundef ptr @_ZNK6vectorISt4pairIRN3sat6clauseENS1_6statusEELb0EjE5beginEv(ptr noundef nonnull align 8 dereferenceable(8) %1)
  store ptr %call, ptr %__begin1, align 8
  %2 = load ptr, ptr %__range1, align 8
  %call2 = call noundef ptr @_ZNK6vectorISt4pairIRN3sat6clauseENS1_6statusEELb0EjE3endEv(ptr noundef nonnull align 8 dereferenceable(8) %2)
  store ptr %call2, ptr %__end1, align 8
  br label %for.cond

for.cond:                                         ; preds = %for.inc22, %entry
  %3 = load ptr, ptr %__begin1, align 8
  %4 = load ptr, ptr %__end1, align 8
  %cmp = icmp ne ptr %3, %4
  br i1 %cmp, label %for.body, label %for.end23

for.body:                                         ; preds = %for.cond
  %5 = load ptr, ptr %__begin1, align 8
  store ptr %5, ptr %0, align 8
  %6 = load ptr, ptr %0, align 8
  %call3 = call noundef nonnull align 4 dereferenceable(20) ptr @_ZSt3getILm0ERN3sat6clauseENS0_6statusEERKNSt13tuple_elementIXT_ESt4pairIT0_T1_EE4typeERKS8_(ptr noundef nonnull align 8 dereferenceable(24) %6) #3
  store ptr %call3, ptr %c, align 8
  %7 = load ptr, ptr %0, align 8
  %call4 = call noundef nonnull align 8 dereferenceable(16) ptr @_ZSt3getILm1ERN3sat6clauseENS0_6statusEERKNSt13tuple_elementIXT_ESt4pairIT0_T1_EE4typeERKS8_(ptr noundef nonnull align 8 dereferenceable(24) %7) #3
  store ptr %call4, ptr %st, align 8
  %8 = load ptr, ptr %c, align 8
  %call5 = call noundef i32 @_ZNK3sat6clause4sizeEv(ptr noundef nonnull align 4 dereferenceable(20) %8)
  %cmp6 = icmp ugt i32 %call5, 1
  br i1 %cmp6, label %land.lhs.true, label %if.end21

land.lhs.true:                                    ; preds = %for.body
  %9 = load ptr, ptr %st, align 8
  %call7 = call noundef zeroext i1 @_ZNK3sat6status10is_deletedEv(ptr noundef nonnull align 8 dereferenceable(16) %9)
  br i1 %call7, label %if.end21, label %if.then

if.then:                                          ; preds = %land.lhs.true
  store i32 0, ptr %num_undef, align 4
  store i32 0, ptr %num_true, align 4
  store i32 0, ptr %j, align 4
  br label %for.cond8

for.cond8:                                        ; preds = %for.inc, %if.then
  %10 = load i32, ptr %j, align 4
  %11 = load ptr, ptr %c, align 8
  %call9 = call noundef i32 @_ZNK3sat6clause4sizeEv(ptr noundef nonnull align 4 dereferenceable(20) %11)
  %cmp10 = icmp ult i32 %10, %call9
  br i1 %cmp10, label %for.body11, label %for.end

for.body11:                                       ; preds = %for.cond8
  %12 = load ptr, ptr %c, align 8
  %13 = load i32, ptr %j, align 4
  %call12 = call noundef nonnull align 4 dereferenceable(4) ptr @_ZN3sat6clauseixEj(ptr noundef nonnull align 4 dereferenceable(20) %12, i32 noundef %13)
  call void @llvm.memcpy.p0.p0.i64(ptr align 4 %agg.tmp, ptr align 4 %call12, i64 4, i1 false)
  %coerce.dive = getelementptr inbounds %"class.sat::literal", ptr %agg.tmp, i32 0, i32 0
  %14 = load i32, ptr %coerce.dive, align 4
  %call13 = call noundef i32 @_ZNK3sat4drat5valueENS_7literalE(ptr noundef nonnull align 8 dereferenceable(664) %this1, i32 %14)
  switch i32 %call13, label %sw.epilog [
    i32 -1, label %sw.bb
    i32 1, label %sw.bb14
    i32 0, label %sw.bb15
  ]

sw.bb:                                            ; preds = %for.body11
  br label %sw.epilog

sw.bb14:                                          ; preds = %for.body11
  %15 = load i32, ptr %num_true, align 4
  %inc = add i32 %15, 1
  store i32 %inc, ptr %num_true, align 4
  br label %sw.epilog

sw.bb15:                                          ; preds = %for.body11
  %16 = load i32, ptr %num_undef, align 4
  %inc16 = add i32 %16, 1
  store i32 %inc16, ptr %num_undef, align 4
  br label %sw.epilog

sw.epilog:                                        ; preds = %sw.bb15, %sw.bb14, %sw.bb, %for.body11
  br label %for.inc

for.inc:                                          ; preds = %sw.epilog
  %17 = load i32, ptr %j, align 4
  %inc17 = add i32 %17, 1
  store i32 %inc17, ptr %j, align 4
  br label %for.cond8, !llvm.loop !22

for.end:                                          ; preds = %for.cond8
  %18 = load i32, ptr %num_true, align 4
  %cmp18 = icmp ne i32 %18, 0
  br i1 %cmp18, label %if.end, label %lor.lhs.false

lor.lhs.false:                                    ; preds = %for.end
  %19 = load i32, ptr %num_undef, align 4
  %cmp19 = icmp ne i32 %19, 1
  br i1 %cmp19, label %if.end, label %if.then20

if.then20:                                        ; preds = %lor.lhs.false
  call void @_Z26notify_assertion_violationPKciS0_(ptr noundef @.str.5, i32 noundef 375, ptr noundef @.str.6)
  call void @exit(i32 noundef 114) #13
  unreachable

if.end:                                           ; preds = %lor.lhs.false, %for.end
  br label %if.end21

if.end21:                                         ; preds = %if.end, %land.lhs.true, %for.body
  br label %for.inc22

for.inc22:                                        ; preds = %if.end21
  %20 = load ptr, ptr %__begin1, align 8
  %incdec.ptr = getelementptr inbounds %"struct.std::pair", ptr %20, i32 1
  store ptr %incdec.ptr, ptr %__begin1, align 8
  br label %for.cond

for.end23:                                        ; preds = %for.cond
  ret void
}