; Function Attrs: mustprogress uwtable
define hidden void @_ZNK3sat4drat20validate_propagationEv(ptr nocapture noundef nonnull readonly align 8 dereferenceable(664) %this) local_unnamed_addr #3 align 2 {
entry:
  %m_proof = getelementptr inbounds i8, ptr %this, i64 608
  %0 = load ptr, ptr %m_proof, align 8
  %cmp.i.i = icmp eq ptr %0, null
  br i1 %cmp.i.i, label %for.end23, label %_ZNK6vectorISt4pairIRN3sat6clauseENS1_6statusEELb0EjE3endEv.exit

_ZNK6vectorISt4pairIRN3sat6clauseENS1_6statusEELb0EjE3endEv.exit: ; preds = %entry
  %arrayidx.i.i = getelementptr inbounds i8, ptr %0, i64 -4
  %1 = load i32, ptr %arrayidx.i.i, align 4
  %2 = zext i32 %1 to i64
  %add.ptr.i = getelementptr inbounds %"struct.std::pair", ptr %0, i64 %2
  %cmp.not19 = icmp eq i32 %1, 0
  br i1 %cmp.not19, label %for.end23, label %for.body.lr.ph

for.body.lr.ph:                                   ; preds = %_ZNK6vectorISt4pairIRN3sat6clauseENS1_6statusEELb0EjE3endEv.exit
  %m_assignment.i = getelementptr inbounds i8, ptr %this, i64 632
  %3 = load ptr, ptr %m_assignment.i, align 8
  %.fr = freeze ptr %3
  %cmp.i.i.i = icmp eq ptr %.fr, null
  %arrayidx.i.i.i = getelementptr inbounds i8, ptr %.fr, i64 -4
  br i1 %cmp.i.i.i, label %for.end23, label %for.body

for.body:                                         ; preds = %for.body.lr.ph, %for.inc22
  %__begin1.020 = phi ptr [ %incdec.ptr, %for.inc22 ], [ %0, %for.body.lr.ph ]
  %4 = load ptr, ptr %__begin1.020, align 8
  %m_size.i = getelementptr inbounds i8, ptr %4, i64 4
  %5 = load i32, ptr %m_size.i, align 4
  %cmp6 = icmp ugt i32 %5, 1
  br i1 %cmp6, label %land.lhs.true, label %for.inc22

land.lhs.true:                                    ; preds = %for.body
  %second.i.i = getelementptr inbounds i8, ptr %__begin1.020, i64 8
  %6 = load i32, ptr %second.i.i, align 8
  %cmp.i = icmp eq i32 %6, 3
  br i1 %cmp.i, label %for.inc22, label %for.cond8.preheader

for.cond8.preheader:                              ; preds = %land.lhs.true
  %m_lits.i = getelementptr inbounds i8, ptr %4, i64 20
  %7 = load i32, ptr %arrayidx.i.i.i, align 4
  %wide.trip.count = zext i32 %5 to i64
  br label %for.body11

for.body11:                                       ; preds = %for.cond8.preheader, %for.inc
  %indvars.iv = phi i64 [ 0, %for.cond8.preheader ], [ %indvars.iv.next, %for.inc ]
  %num_true.016 = phi i32 [ 0, %for.cond8.preheader ], [ %num_true.1, %for.inc ]
  %num_undef.015 = phi i32 [ 0, %for.cond8.preheader ], [ %num_undef.1, %for.inc ]
  %arrayidx.i = getelementptr inbounds [0 x %"class.sat::literal"], ptr %m_lits.i, i64 0, i64 %indvars.iv
  %agg.tmp.sroa.0.0.copyload = load i32, ptr %arrayidx.i, align 4
  %shr.i.i = lshr i32 %agg.tmp.sroa.0.0.copyload, 1
  %cmp.not.i.i = icmp ugt i32 %7, %shr.i.i
  br i1 %cmp.not.i.i, label %_ZNK6vectorI5lboolLb0EjE3getEjRKS0_.exit.cont.i, label %sw.bb15

_ZNK6vectorI5lboolLb0EjE3getEjRKS0_.exit.cont.i:  ; preds = %for.body11
  %idxprom.i.i = zext nneg i32 %shr.i.i to i64
  %arrayidx.i.i12 = getelementptr inbounds i32, ptr %.fr, i64 %idxprom.i.i
  %.then.val.i = load i32, ptr %arrayidx.i.i12, align 4
  %cmp.i13 = icmp eq i32 %.then.val.i, 0
  br i1 %cmp.i13, label %sw.bb15, label %lor.lhs.false.i

lor.lhs.false.i:                                  ; preds = %_ZNK6vectorI5lboolLb0EjE3getEjRKS0_.exit.cont.i
  %8 = and i32 %agg.tmp.sroa.0.0.copyload, 1
  %tobool.i.not.i = icmp eq i32 %8, 0
  %sub.i.i = sub nsw i32 0, %.then.val.i
  %spec.select = select i1 %tobool.i.not.i, i32 %.then.val.i, i32 %sub.i.i
  switch i32 %spec.select, label %for.inc [
    i32 0, label %sw.bb15
    i32 1, label %sw.bb14
  ]

sw.bb14:                                          ; preds = %lor.lhs.false.i
  %inc = add i32 %num_true.016, 1
  br label %for.inc

sw.bb15:                                          ; preds = %for.body11, %_ZNK6vectorI5lboolLb0EjE3getEjRKS0_.exit.cont.i, %lor.lhs.false.i
  %inc16 = add i32 %num_undef.015, 1
  br label %for.inc

for.inc:                                          ; preds = %lor.lhs.false.i, %sw.bb14, %sw.bb15
  %num_undef.1 = phi i32 [ %num_undef.015, %lor.lhs.false.i ], [ %num_undef.015, %sw.bb14 ], [ %inc16, %sw.bb15 ]
  %num_true.1 = phi i32 [ %num_true.016, %lor.lhs.false.i ], [ %inc, %sw.bb14 ], [ %num_true.016, %sw.bb15 ]
  %indvars.iv.next = add nuw nsw i64 %indvars.iv, 1
  %exitcond.not = icmp eq i64 %indvars.iv.next, %wide.trip.count
  br i1 %exitcond.not, label %for.end.split, label %for.body11, !llvm.loop !23

for.end.split:                                    ; preds = %for.inc
  %cmp18 = icmp ne i32 %num_true.1, 0
  %cmp19 = icmp ne i32 %num_undef.1, 1
  %or.cond = select i1 %cmp18, i1 true, i1 %cmp19
  br i1 %or.cond, label %for.inc22, label %if.then20

if.then20:                                        ; preds = %for.end.split
  tail call void @_Z26notify_assertion_violationPKciS0_(ptr noundef nonnull @.str.5, i32 noundef 375, ptr noundef nonnull @.str.6)
  tail call void @exit(i32 noundef 114) #20
  unreachable

for.inc22:                                        ; preds = %for.body, %land.lhs.true, %for.end.split
  %incdec.ptr = getelementptr inbounds i8, ptr %__begin1.020, i64 24
  %cmp.not = icmp eq ptr %incdec.ptr, %add.ptr.i
  br i1 %cmp.not, label %for.end23, label %for.body

for.end23:                                        ; preds = %for.inc22, %for.body.lr.ph, %entry, %_ZNK6vectorISt4pairIRN3sat6clauseENS1_6statusEELb0EjE3endEv.exit
  ret void
}